target datalayout = "e-m:e-p270:32:32-p271:32:32-p272:64:64-i64:64-i128:128-f80:128-n8:16:32:64-S128"
target triple = "x86_64-pc-linux-gnu"

%struct.List = type { i32, i32, i32, ptr, [0 x %union.ListCell] }
%union.ListCell = type { ptr }

@.str.1 = private unnamed_addr constant [14 x i8] c"opclasscmds.c\00", align 1
@.str.23 = private unnamed_addr constant [44 x i8] c"one or two argument types must be specified\00", align 1
@__func__.processTypesSpec = private unnamed_addr constant [17 x i8] c"processTypesSpec\00", align 1

; Function Attrs: inlinehint nounwind uwtable
define internal i32 @list_length(ptr noundef %0) #2 {
  %2 = alloca ptr, align 8
  store ptr %0, ptr %2, align 8
  %3 = load ptr, ptr %2, align 8
  %4 = icmp ne ptr %3, null
  br i1 %4, label %5, label %9

5:                                                ; preds = %1
  %6 = load ptr, ptr %2, align 8
  %7 = getelementptr inbounds nuw %struct.List, ptr %6, i32 0, i32 1
  %8 = load i32, ptr %7, align 4
  br label %10

9:                                                ; preds = %1
  br label %10

10:                                               ; preds = %9, %5
  %11 = phi i32 [ %8, %5 ], [ 0, %9 ]
  ret i32 %11
}

; Function Attrs: inlinehint nounwind uwtable
define internal ptr @list_nth_cell(ptr noundef %0, i32 noundef %1) #2 {
  %3 = alloca ptr, align 8
  %4 = alloca i32, align 4
  store ptr %0, ptr %3, align 8
  store i32 %1, ptr %4, align 4
  %5 = load ptr, ptr %3, align 8
  %6 = getelementptr inbounds nuw %struct.List, ptr %5, i32 0, i32 3
  %7 = load ptr, ptr %6, align 8
  %8 = load i32, ptr %4, align 4
  %9 = sext i32 %8 to i64
  %10 = getelementptr inbounds %union.ListCell, ptr %7, i64 %9
  ret ptr %10
}

; Function Attrs: nounwind uwtable
define internal void @processTypesSpec(ptr noundef %0, ptr noundef %1, ptr noundef %2) #0 {
  %4 = alloca ptr, align 8
  %5 = alloca ptr, align 8
  %6 = alloca ptr, align 8
  %7 = alloca ptr, align 8
  store ptr %0, ptr %4, align 8
  store ptr %1, ptr %5, align 8
  store ptr %2, ptr %6, align 8
  call void @llvm.lifetime.start.p0(i64 8, ptr %7) #7
  %8 = load ptr, ptr %4, align 8
  %9 = call ptr @list_nth_cell(ptr noundef %8, i32 noundef 0)
  %10 = load ptr, ptr %9, align 8
  store ptr %10, ptr %7, align 8
  %11 = load ptr, ptr %7, align 8
  %12 = call i32 @typenameTypeId(ptr noundef null, ptr noundef %11)
  %13 = load ptr, ptr %5, align 8
  store i32 %12, ptr %13, align 4
  %14 = load ptr, ptr %4, align 8
  %15 = call i32 @list_length(ptr noundef %14)
  %16 = icmp sgt i32 %15, 1
  br i1 %16, label %17, label %24

17:                                               ; preds = %3
  %18 = load ptr, ptr %4, align 8
  %19 = call ptr @list_nth_cell(ptr noundef %18, i32 noundef 1)
  %20 = load ptr, ptr %19, align 8
  store ptr %20, ptr %7, align 8
  %21 = load ptr, ptr %7, align 8
  %22 = call i32 @typenameTypeId(ptr noundef null, ptr noundef %21)
  %23 = load ptr, ptr %6, align 8
  store i32 %22, ptr %23, align 4
  br label %28

24:                                               ; preds = %3
  %25 = load ptr, ptr %5, align 8
  %26 = load i32, ptr %25, align 4
  %27 = load ptr, ptr %6, align 8
  store i32 %26, ptr %27, align 4
  br label %28

28:                                               ; preds = %24, %17
  %29 = load ptr, ptr %4, align 8
  %30 = call i32 @list_length(ptr noundef %29)
  %31 = icmp sgt i32 %30, 2
  br i1 %31, label %32, label %44

32:                                               ; preds = %28
  br label %33

33:                                               ; preds = %32
  br i1 true, label %34, label %36

34:                                               ; preds = %33
  %35 = call zeroext i1 @errstart_cold(i32 noundef 21, ptr noundef null) #8
  br i1 %35, label %38, label %41

36:                                               ; preds = %33
  %37 = call zeroext i1 @errstart(i32 noundef 21, ptr noundef null)
  br i1 %37, label %38, label %41

38:                                               ; preds = %36, %34
  %39 = call i32 @errcode(i32 noundef 16801924)
  %40 = call i32 (ptr, ...) @errmsg(ptr noundef @.str.23)
  call void @errfinish(ptr noundef @.str.1, i32 noundef 1128, ptr noundef @__func__.processTypesSpec)
  br label %41

41:                                               ; preds = %38, %36, %34
  unreachable

42:                                               ; No predecessors!
  br label %43

43:                                               ; preds = %42
  br label %44

44:                                               ; preds = %43, %28
  call void @llvm.lifetime.end.p0(i64 8, ptr %7) #7
  ret void
}