; Function Attrs: nounwind uwtable
define internal fastcc void @processTypesSpec(ptr noundef readonly captures(none) %0, ptr noundef writeonly captures(none) initializes((0, 4)) %1, ptr noundef writeonly captures(none) initializes((0, 4)) %2) unnamed_addr #0 {
list_length.exit:
  %3 = getelementptr i8, ptr %0, i64 16
  %.val = load ptr, ptr %3, align 8
  %4 = load ptr, ptr %.val, align 8
  %5 = tail call i32 @typenameTypeId(ptr noundef null, ptr noundef %4) #6
  store i32 %5, ptr %1, align 4
  %6 = getelementptr inbounds nuw i8, ptr %0, i64 4
  %7 = load i32, ptr %6, align 4
  %8 = icmp sgt i32 %7, 1
  br i1 %8, label %9, label %list_length.exit12

9:                                                ; preds = %list_length.exit
  %.val10 = load ptr, ptr %3, align 8
  %10 = getelementptr inbounds nuw i8, ptr %.val10, i64 8
  %11 = load ptr, ptr %10, align 8
  %12 = tail call i32 @typenameTypeId(ptr noundef null, ptr noundef %11) #6
  br label %list_length.exit12

list_length.exit12:                               ; preds = %list_length.exit, %9
  %storemerge = phi i32 [ %12, %9 ], [ %5, %list_length.exit ]
  store i32 %storemerge, ptr %2, align 4
  %13 = load i32, ptr %6, align 4
  %14 = icmp sgt i32 %13, 2
  br i1 %14, label %15, label %19

15:                                               ; preds = %list_length.exit12
  %16 = tail call zeroext i1 @errstart_cold(i32 noundef 21, ptr noundef null) #7
  tail call void @llvm.assume(i1 %16)
  %17 = tail call i32 @errcode(i32 noundef 16801924) #6
  %18 = tail call i32 (ptr, ...) @errmsg(ptr noundef nonnull @.str.23) #6
  tail call void @errfinish(ptr noundef nonnull @.str.1, i32 noundef 1128, ptr noundef nonnull @__func__.processTypesSpec) #6
  unreachable

19:                                               ; preds = %list_length.exit12
  ret void
}